; Function Attrs: mustprogress uwtable
define dso_local noundef nonnull ptr @_ZN23cmCPackArchiveGenerator17CreateTZGeneratorEv() local_unnamed_addr #3 align 2 personality ptr @__gxx_personality_v0 {
  %1 = alloca %"class.std::__cxx11::basic_string", align 8
  %2 = alloca %"class.std::allocator", align 1
  %3 = alloca %"class.std::__cxx11::basic_string", align 8
  %4 = alloca %"class.std::allocator", align 1
  %5 = tail call noalias noundef nonnull dereferenceable(432) ptr @_Znwm(i64 noundef 432) #19
  call void @_ZNSaIcEC1Ev(ptr noundef nonnull align 1 dereferenceable(1) %2) #20
  %6 = invoke noundef ptr @_ZNSt7__cxx1112basic_stringIcSt11char_traitsIcESaIcEE13_M_local_dataEv(ptr noundef nonnull align 8 dereferenceable(32) %1)
          to label %.noexc unwind label %16

.noexc:                                           ; preds = %0
  invoke void @_ZNSt7__cxx1112basic_stringIcSt11char_traitsIcESaIcEE12_Alloc_hiderC1EPcRKS3_(ptr noundef nonnull align 8 dereferenceable(8) %1, ptr noundef %6, ptr noundef nonnull align 1 dereferenceable(1) %2)
          to label %.noexc6 unwind label %16

.noexc6:                                          ; preds = %.noexc
  invoke void @_ZNSt7__cxx1112basic_stringIcSt11char_traitsIcESaIcEE12_M_constructIPKcEEvT_S8_St20forward_iterator_tag(ptr noundef nonnull align 8 dereferenceable(32) %1, ptr noundef nonnull @.str.2, ptr noundef nonnull getelementptr inbounds ([5 x i8], ptr @.str.2, i64 0, i64 4))
          to label %_ZNSt7__cxx1112basic_stringIcSt11char_traitsIcESaIcEEC2IS3_EEPKcRKS3_.exit unwind label %7

7:                                                ; preds = %.noexc6
  %8 = landingpad { ptr, i32 }
          cleanup
  call void @_ZNSaIcED2Ev(ptr noundef nonnull align 1 dereferenceable(1) %1) #20
  br label %.body

_ZNSt7__cxx1112basic_stringIcSt11char_traitsIcESaIcEEC2IS3_EEPKcRKS3_.exit: ; preds = %.noexc6
  call void @_ZNSaIcEC1Ev(ptr noundef nonnull align 1 dereferenceable(1) %4) #20
  %9 = invoke noundef ptr @_ZNSt7__cxx1112basic_stringIcSt11char_traitsIcESaIcEE13_M_local_dataEv(ptr noundef nonnull align 8 dereferenceable(32) %3)
          to label %.noexc7 unwind label %18

.noexc7:                                          ; preds = %_ZNSt7__cxx1112basic_stringIcSt11char_traitsIcESaIcEEC2IS3_EEPKcRKS3_.exit
  invoke void @_ZNSt7__cxx1112basic_stringIcSt11char_traitsIcESaIcEE12_Alloc_hiderC1EPcRKS3_(ptr noundef nonnull align 8 dereferenceable(8) %3, ptr noundef %9, ptr noundef nonnull align 1 dereferenceable(1) %4)
          to label %.noexc8 unwind label %18

.noexc8:                                          ; preds = %.noexc7
  invoke void @_ZNSt7__cxx1112basic_stringIcSt11char_traitsIcESaIcEE12_M_constructIPKcEEvT_S8_St20forward_iterator_tag(ptr noundef nonnull align 8 dereferenceable(32) %3, ptr noundef nonnull @.str.6, ptr noundef nonnull getelementptr inbounds ([7 x i8], ptr @.str.6, i64 0, i64 6))
          to label %_ZNSt7__cxx1112basic_stringIcSt11char_traitsIcESaIcEEC2IS3_EEPKcRKS3_.exit11 unwind label %10

10:                                               ; preds = %.noexc8
  %11 = landingpad { ptr, i32 }
          cleanup
  call void @_ZNSaIcED2Ev(ptr noundef nonnull align 1 dereferenceable(1) %3) #20
  br label %.body9

_ZNSt7__cxx1112basic_stringIcSt11char_traitsIcESaIcEEC2IS3_EEPKcRKS3_.exit11: ; preds = %.noexc8
  invoke void @_ZN16cmCPackGeneratorC2Ev(ptr noundef nonnull align 8 dereferenceable(360) %5)
          to label %12 unwind label %20

12:                                               ; preds = %_ZNSt7__cxx1112basic_stringIcSt11char_traitsIcESaIcEEC2IS3_EEPKcRKS3_.exit11
  store ptr getelementptr inbounds ({ [32 x ptr] }, ptr @_ZTV23cmCPackArchiveGenerator, i64 0, i32 0, i64 2), ptr %5, align 8
  %13 = getelementptr inbounds i8, ptr %5, i64 360
  store i32 1, ptr %13, align 8
  %14 = getelementptr inbounds i8, ptr %5, i64 368
  call void @_ZNSt7__cxx1112basic_stringIcSt11char_traitsIcESaIcEEC1EOS4_(ptr noundef nonnull align 8 dereferenceable(32) %14, ptr noundef nonnull align 8 dereferenceable(32) %1) #20
  %15 = getelementptr inbounds i8, ptr %5, i64 400
  call void @_ZNSt7__cxx1112basic_stringIcSt11char_traitsIcESaIcEEC1EOS4_(ptr noundef nonnull align 8 dereferenceable(32) %15, ptr noundef nonnull align 8 dereferenceable(32) %3) #20
  call void @_ZNSt7__cxx1112basic_stringIcSt11char_traitsIcESaIcEED1Ev(ptr noundef nonnull align 8 dereferenceable(32) %3) #20
  call void @_ZNSaIcED1Ev(ptr noundef nonnull align 1 dereferenceable(1) %4) #20
  call void @_ZNSt7__cxx1112basic_stringIcSt11char_traitsIcESaIcEED1Ev(ptr noundef nonnull align 8 dereferenceable(32) %1) #20
  call void @_ZNSaIcED1Ev(ptr noundef nonnull align 1 dereferenceable(1) %2) #20
  ret ptr %5

16:                                               ; preds = %.noexc, %0
  %17 = landingpad { ptr, i32 }
          cleanup
  br label %.body

18:                                               ; preds = %.noexc7, %_ZNSt7__cxx1112basic_stringIcSt11char_traitsIcESaIcEEC2IS3_EEPKcRKS3_.exit
  %19 = landingpad { ptr, i32 }
          cleanup
  br label %.body9

20:                                               ; preds = %_ZNSt7__cxx1112basic_stringIcSt11char_traitsIcESaIcEEC2IS3_EEPKcRKS3_.exit11
  %21 = landingpad { ptr, i32 }
          cleanup
  call void @_ZNSt7__cxx1112basic_stringIcSt11char_traitsIcESaIcEED1Ev(ptr noundef nonnull align 8 dereferenceable(32) %3) #20
  br label %.body9

.body9:                                           ; preds = %18, %10, %20
  %.pn = phi { ptr, i32 } [ %21, %20 ], [ %19, %18 ], [ %11, %10 ]
  call void @_ZNSaIcED1Ev(ptr noundef nonnull align 1 dereferenceable(1) %4) #20
  call void @_ZNSt7__cxx1112basic_stringIcSt11char_traitsIcESaIcEED1Ev(ptr noundef nonnull align 8 dereferenceable(32) %1) #20
  br label %.body

.body:                                            ; preds = %16, %7, %.body9
  %.pn.pn = phi { ptr, i32 } [ %.pn, %.body9 ], [ %17, %16 ], [ %8, %7 ]
  call void @_ZNSaIcED1Ev(ptr noundef nonnull align 1 dereferenceable(1) %2) #20
  call void @_ZdlPv(ptr noundef nonnull %5) #21
  resume { ptr, i32 } %.pn.pn
}